; Function Attrs: mustprogress uwtable
define noundef range(i32 0, 3) i32 @_ZN10open_spiel12connect_four14PlayerRelativeENS0_9CellStateEi(i32 noundef %0, i32 noundef %1) local_unnamed_addr #3 personality ptr @__gxx_personality_v0 {
  %3 = alloca %"class.std::__cxx11::basic_string", align 8
  %4 = alloca %"class.std::allocator", align 1
  switch i32 %0, label %11 [
    i32 1, label %5
    i32 2, label %8
    i32 0, label %19
  ]

5:                                                ; preds = %2
  %6 = icmp ne i32 %1, 0
  %7 = zext i1 %6 to i32
  br label %19

8:                                                ; preds = %2
  %9 = icmp ne i32 %1, 1
  %10 = zext i1 %9 to i32
  br label %19

11:                                               ; preds = %2
  call void @_ZNSaIcEC1Ev(ptr noundef nonnull align 1 dereferenceable(1) %4) #25
  invoke void @_ZNSt7__cxx1112basic_stringIcSt11char_traitsIcESaIcEEC2IS3_EEPKcRKS3_(ptr noundef nonnull align 8 dereferenceable(32) %3, ptr noundef nonnull @.str.18, ptr noundef nonnull align 1 dereferenceable(1) %4)
          to label %12 unwind label %14

12:                                               ; preds = %11
  invoke void @_ZN10open_spiel15SpielFatalErrorERKNSt7__cxx1112basic_stringIcSt11char_traitsIcESaIcEEE(ptr noundef nonnull align 8 dereferenceable(32) %3) #24
          to label %13 unwind label %16

13:                                               ; preds = %12
  unreachable

14:                                               ; preds = %11
  %15 = landingpad { ptr, i32 }
          cleanup
  br label %18

16:                                               ; preds = %12
  %17 = landingpad { ptr, i32 }
          cleanup
  call void @_ZNSt7__cxx1112basic_stringIcSt11char_traitsIcESaIcEED1Ev(ptr noundef nonnull align 8 dereferenceable(32) %3) #25
  br label %18

18:                                               ; preds = %16, %14
  %.pn = phi { ptr, i32 } [ %17, %16 ], [ %15, %14 ]
  call void @_ZNSaIcED1Ev(ptr noundef nonnull align 1 dereferenceable(1) %4) #25
  resume { ptr, i32 } %.pn

19:                                               ; preds = %2, %8, %5
  %.06 = phi i32 [ %10, %8 ], [ %7, %5 ], [ 2, %2 ]
  ret i32 %.06
}